; Function Attrs: nounwind uwtable
define i32 @Java_sun_nio_ch_UnixFileDispatcherImpl_force0(ptr noundef %0, ptr nocapture noundef readnone %1, ptr noundef %2, i8 noundef zeroext %3) local_unnamed_addr #0 {
  %5 = tail call i32 @fdval(ptr noundef %0, ptr noundef %2) #6
  %6 = icmp eq i8 %3, 0
  br i1 %6, label %7, label %9

7:                                                ; preds = %4
  %8 = tail call i32 @fdatasync(i32 noundef %5) #6
  br label %11

9:                                                ; preds = %4
  %10 = tail call i32 @fsync(i32 noundef %5) #6
  br label %11

11:                                               ; preds = %9, %7
  %.0 = phi i32 [ %8, %7 ], [ %10, %9 ]
  %12 = icmp sgt i32 %.0, -1
  br i1 %12, label %handle.exit, label %13

13:                                               ; preds = %11
  %14 = tail call ptr @__errno_location() #7
  %15 = load i32, ptr %14, align 4
  %16 = icmp eq i32 %15, 4
  br i1 %16, label %handle.exit, label %17

17:                                               ; preds = %13
  tail call void @JNU_ThrowIOExceptionWithLastError(ptr noundef %0, ptr noundef nonnull @.str.1) #6
  br label %handle.exit

handle.exit:                                      ; preds = %11, %13, %17
  %.0.i = phi i32 [ -5, %17 ], [ %.0, %11 ], [ -3, %13 ]
  ret i32 %.0.i
}